(dp0
S'IW_PLATFORM_S3E'
p1
NsS'I3D_PLATFORM_S3E'
p2
NsS'S3E_INCLUDE_LEGACY'
p3
NsS'IW_SDK'
p4
NsS'__S3E__'
p5
NsS'IW_APP_NAME'
p6
S'"bullet"'
p7
sS'I3D_OS_S3E'
p8
NsS'IW_APP_VERSION'
p9
S'"1.0"'
p10
sS'IW_DEBUG'
p11
NsS'IW_MKF_BULLET'
p12
Ns.